target datalayout = "e-m:e-p270:32:32-p271:32:32-p272:64:64-i64:64-i128:128-f80:128-n8:16:32:64-S128"
target triple = "x86_64-pc-linux-gnu"

; Function Attrs: nounwind uwtable
define internal ptr @buf_align(ptr noundef %0, i32 noundef %1) #0 {
  %3 = alloca ptr, align 8
  %4 = alloca i32, align 4
  %5 = alloca ptr, align 8
  store ptr %0, ptr %3, align 8, !tbaa !8
  store i32 %1, ptr %4, align 4, !tbaa !18
  call void @llvm.lifetime.start.p0(i64 8, ptr %5) #5
  %6 = load ptr, ptr %3, align 8, !tbaa !8
  store ptr %6, ptr %5, align 8, !tbaa !20
  %7 = load ptr, ptr %5, align 8, !tbaa !20
  %8 = icmp ne ptr %7, null
  br i1 %8, label %9, label %16

9:                                                ; preds = %2
  %10 = load ptr, ptr %5, align 8, !tbaa !20
  %11 = ptrtoint ptr %10 to i64
  %12 = add i64 %11, 3
  %13 = udiv i64 %12, 4
  %14 = mul i64 %13, 4
  %15 = inttoptr i64 %14 to ptr
  store ptr %15, ptr %5, align 8, !tbaa !20
  br label %16

16:                                               ; preds = %9, %2
  %17 = load ptr, ptr %5, align 8, !tbaa !20
  call void @llvm.lifetime.end.p0(i64 8, ptr %5) #5
  ret ptr %17
}