; Function Attrs: mustprogress nofree norecurse nosync nounwind willreturn memory(none) uwtable
define internal noundef ptr @buf_align(ptr noundef %0, i32 %1) #1 {
  %.not = icmp eq ptr %0, null
  %3 = ptrtoint ptr %0 to i64
  %4 = add i64 %3, 3
  %5 = and i64 %4, -4
  %6 = inttoptr i64 %5 to ptr
  %.0 = select i1 %.not, ptr null, ptr %6
  ret ptr %.0
}